; Function Attrs: nounwind sspstrong uwtable
define internal void @cpu_get_mimpid(ptr noundef %obj, ptr noundef %v, ptr noundef %name, ptr readnone captures(none) %opaque, ptr noundef %errp) #3 {
entry:
  %value = alloca i8, align 1
  %call.i = tail call ptr @object_dynamic_cast_assert(ptr noundef %obj, ptr noundef nonnull @.str.250, ptr noundef nonnull @.str.282, i32 noundef 46, ptr noundef nonnull @__func__.RISCV_CPU) #14
  %mimpid = getelementptr inbounds nuw i8, ptr %call.i, i64 15408
  %0 = load i64, ptr %mimpid, align 16
  %tobool = icmp ne i64 %0, 0
  %frombool = zext i1 %tobool to i8
  store i8 %frombool, ptr %value, align 1
  %call1 = call zeroext i1 @visit_type_bool(ptr noundef %v, ptr noundef %name, ptr noundef nonnull %value, ptr noundef %errp) #14
  ret void
}